target datalayout = "e-m:e-p270:32:32-p271:32:32-p272:64:64-i64:64-i128:128-f80:128-n8:16:32:64-S128"
target triple = "x86_64-pc-linux-gnu"

%struct.NarrowPtrStruct = type { ptr, i32, i8 }
%class.MemRegion = type { ptr, i64 }

@_ZN14CompressedOops11_narrow_oopE = hidden global %struct.NarrowPtrStruct { ptr null, i32 0, i8 1 }, align 8
@_ZN14CompressedOops19_heap_address_rangeE = hidden global %class.MemRegion zeroinitializer, align 8
@LogMinObjAlignmentInBytes = external global i32, align 4
@.str.5 = private unnamed_addr constant [7 x i8] c"32-bit\00", align 1
@.str.6 = private unnamed_addr constant [11 x i8] c"Zero based\00", align 1
@.str.7 = private unnamed_addr constant [23 x i8] c"Non-zero disjoint base\00", align 1
@.str.8 = private unnamed_addr constant [15 x i8] c"Non-zero based\00", align 1
@g_assert_poison = external global ptr, align 8
@.str.9 = private unnamed_addr constant [42 x i8] c"src/hotspot/share/oops/compressedOops.cpp\00", align 1
@.str.10 = private unnamed_addr constant [1 x i8] zeroinitializer, align 1
@.str.11 = private unnamed_addr constant [37 x i8] c"Heap address: 0x%016lx, size: %lu MB\00", align 1
@.str.12 = private unnamed_addr constant [27 x i8] c", Compressed Oops mode: %s\00", align 1
@.str.13 = private unnamed_addr constant [11 x i8] c": 0x%016lx\00", align 1
@.str.14 = private unnamed_addr constant [23 x i8] c", Oop shift amount: %d\00", align 1
@.str.15 = private unnamed_addr constant [41 x i8] c", no protected page in front of the heap\00", align 1

; Function Attrs: mustprogress nounwind uwtable
define hidden noundef zeroext i1 @_ZN14CompressedOops29is_disjoint_heap_base_addressEPh(ptr noundef %0) #1 align 2 {
  %2 = alloca ptr, align 8
  store ptr %0, ptr %2, align 8
  %3 = load ptr, ptr %2, align 8
  %4 = ptrtoint ptr %3 to i64
  %5 = load i32, ptr @LogMinObjAlignmentInBytes, align 4
  %6 = sub nsw i32 32, %5
  %7 = zext i32 %6 to i64
  %8 = lshr i64 -1, %7
  %9 = and i64 %4, %8
  %10 = icmp eq i64 %9, 0
  ret i1 %10
}

; Function Attrs: mustprogress nounwind uwtable
define hidden noundef zeroext i1 @_ZN14CompressedOops13base_disjointEv() #1 align 2 {
  %1 = load ptr, ptr @_ZN14CompressedOops11_narrow_oopE, align 8
  %2 = icmp ne ptr %1, null
  br i1 %2, label %3, label %6

3:                                                ; preds = %0
  %4 = load ptr, ptr @_ZN14CompressedOops11_narrow_oopE, align 8
  %5 = call noundef zeroext i1 @_ZN14CompressedOops29is_disjoint_heap_base_addressEPh(ptr noundef %4)
  br label %6

6:                                                ; preds = %3, %0
  %7 = phi i1 [ false, %0 ], [ %5, %3 ]
  ret i1 %7
}

; Function Attrs: mustprogress nounwind uwtable
define linkonce_odr hidden noundef zeroext i1 @_ZN14CompressedOops24use_implicit_null_checksEv() #1 comdat align 2 {
  %1 = load i8, ptr getelementptr inbounds (%struct.NarrowPtrStruct, ptr @_ZN14CompressedOops11_narrow_oopE, i32 0, i32 2), align 4
  %2 = trunc i8 %1 to i1
  ret i1 %2
}

; Function Attrs: mustprogress nounwind uwtable
define linkonce_odr hidden noundef i32 @_ZN14CompressedOops5shiftEv() #1 comdat align 2 {
  %1 = load i32, ptr getelementptr inbounds (%struct.NarrowPtrStruct, ptr @_ZN14CompressedOops11_narrow_oopE, i32 0, i32 1), align 8
  ret i32 %1
}

; Function Attrs: mustprogress nounwind uwtable
define linkonce_odr hidden noundef ptr @_ZN14CompressedOops4baseEv() #1 comdat align 2 {
  %1 = load ptr, ptr @_ZN14CompressedOops11_narrow_oopE, align 8
  ret ptr %1
}

; Function Attrs: mustprogress nounwind uwtable
define hidden noundef ptr @_ZN14CompressedOops14mode_to_stringENS_4ModeE(i32 noundef %0) #1 align 2 {
  %2 = alloca ptr, align 8
  %3 = alloca i32, align 4
  store i32 %0, ptr %3, align 4
  %4 = load i32, ptr %3, align 4
  switch i32 %4, label %9 [
    i32 0, label %5
    i32 1, label %6
    i32 2, label %7
    i32 3, label %8
  ]

5:                                                ; preds = %1
  store ptr @.str.5, ptr %2, align 8
  br label %13

6:                                                ; preds = %1
  store ptr @.str.6, ptr %2, align 8
  br label %13

7:                                                ; preds = %1
  store ptr @.str.7, ptr %2, align 8
  br label %13

8:                                                ; preds = %1
  store ptr @.str.8, ptr %2, align 8
  br label %13

9:                                                ; preds = %1
  br label %10

10:                                               ; preds = %9
  %11 = load ptr, ptr @g_assert_poison, align 8
  store i8 88, ptr %11, align 1
  call void @_Z28report_should_not_reach_herePKci(ptr noundef @.str.9, i32 noundef 138) #9
  unreachable

12:                                               ; No predecessors!
  store ptr @.str.10, ptr %2, align 8
  br label %13

13:                                               ; preds = %12, %8, %7, %6, %5
  %14 = load ptr, ptr %2, align 8
  ret ptr %14
}

; Function Attrs: mustprogress nounwind uwtable
define hidden noundef i32 @_ZN14CompressedOops4modeEv() #1 align 2 {
  %1 = alloca i32, align 4
  %2 = call noundef zeroext i1 @_ZN14CompressedOops13base_disjointEv()
  br i1 %2, label %3, label %4

3:                                                ; preds = %0
  store i32 2, ptr %1, align 4
  br label %13

4:                                                ; preds = %0
  %5 = call noundef ptr @_ZN14CompressedOops4baseEv()
  %6 = icmp ne ptr %5, null
  br i1 %6, label %7, label %8

7:                                                ; preds = %4
  store i32 3, ptr %1, align 4
  br label %13

8:                                                ; preds = %4
  %9 = call noundef i32 @_ZN14CompressedOops5shiftEv()
  %10 = icmp ne i32 %9, 0
  br i1 %10, label %11, label %12

11:                                               ; preds = %8
  store i32 1, ptr %1, align 4
  br label %13

12:                                               ; preds = %8
  store i32 0, ptr %1, align 4
  br label %13

13:                                               ; preds = %12, %11, %7, %3
  %14 = load i32, ptr %1, align 4
  ret i32 %14
}

; Function Attrs: mustprogress nounwind uwtable
define linkonce_odr hidden noundef i64 @_ZNK9MemRegion9byte_sizeEv(ptr noundef nonnull align 8 dereferenceable(16) %0) #1 comdat align 2 {
  %2 = alloca ptr, align 8
  store ptr %0, ptr %2, align 8
  %3 = load ptr, ptr %2, align 8
  %4 = getelementptr inbounds %class.MemRegion, ptr %3, i32 0, i32 1
  %5 = load i64, ptr %4, align 8
  %6 = mul i64 %5, 8
  ret i64 %6
}

; Function Attrs: mustprogress nounwind uwtable
define linkonce_odr hidden noundef i64 @_Z3p2iPVKv(ptr noundef %0) #1 comdat {
  %2 = alloca ptr, align 8
  store ptr %0, ptr %2, align 8
  %3 = load ptr, ptr %2, align 8
  %4 = ptrtoint ptr %3 to i64
  ret i64 %4
}

; Function Attrs: mustprogress nounwind uwtable
define linkonce_odr hidden noundef ptr @_ZNK9MemRegion5startEv(ptr noundef nonnull align 8 dereferenceable(16) %0) #1 comdat align 2 {
  %2 = alloca ptr, align 8
  store ptr %0, ptr %2, align 8
  %3 = load ptr, ptr %2, align 8
  %4 = getelementptr inbounds %class.MemRegion, ptr %3, i32 0, i32 0
  %5 = load ptr, ptr %4, align 8
  ret ptr %5
}

; Function Attrs: mustprogress nounwind uwtable
define hidden void @_ZN14CompressedOops10print_modeEP12outputStream(ptr noundef %0) #1 align 2 {
  %2 = alloca ptr, align 8
  store ptr %0, ptr %2, align 8
  %3 = load ptr, ptr %2, align 8
  %4 = call noundef ptr @_ZNK9MemRegion5startEv(ptr noundef nonnull align 8 dereferenceable(16) @_ZN14CompressedOops19_heap_address_rangeE)
  %5 = call noundef i64 @_Z3p2iPVKv(ptr noundef %4)
  %6 = call noundef i64 @_ZNK9MemRegion9byte_sizeEv(ptr noundef nonnull align 8 dereferenceable(16) @_ZN14CompressedOops19_heap_address_rangeE)
  %7 = udiv i64 %6, 1048576
  call void (ptr, ptr, ...) @_ZN12outputStream5printEPKcz(ptr noundef nonnull align 8 dereferenceable(56) %3, ptr noundef @.str.11, i64 noundef %5, i64 noundef %7)
  %8 = load ptr, ptr %2, align 8
  %9 = call noundef i32 @_ZN14CompressedOops4modeEv()
  %10 = call noundef ptr @_ZN14CompressedOops14mode_to_stringENS_4ModeE(i32 noundef %9)
  call void (ptr, ptr, ...) @_ZN12outputStream5printEPKcz(ptr noundef nonnull align 8 dereferenceable(56) %8, ptr noundef @.str.12, ptr noundef %10)
  %11 = call noundef ptr @_ZN14CompressedOops4baseEv()
  %12 = icmp ne ptr %11, null
  br i1 %12, label %13, label %17

13:                                               ; preds = %1
  %14 = load ptr, ptr %2, align 8
  %15 = call noundef ptr @_ZN14CompressedOops4baseEv()
  %16 = call noundef i64 @_Z3p2iPVKv(ptr noundef %15)
  call void (ptr, ptr, ...) @_ZN12outputStream5printEPKcz(ptr noundef nonnull align 8 dereferenceable(56) %14, ptr noundef @.str.13, i64 noundef %16)
  br label %17

17:                                               ; preds = %13, %1
  %18 = call noundef i32 @_ZN14CompressedOops5shiftEv()
  %19 = icmp ne i32 %18, 0
  br i1 %19, label %20, label %23

20:                                               ; preds = %17
  %21 = load ptr, ptr %2, align 8
  %22 = call noundef i32 @_ZN14CompressedOops5shiftEv()
  call void (ptr, ptr, ...) @_ZN12outputStream5printEPKcz(ptr noundef nonnull align 8 dereferenceable(56) %21, ptr noundef @.str.14, i32 noundef %22)
  br label %23

23:                                               ; preds = %20, %17
  %24 = call noundef zeroext i1 @_ZN14CompressedOops24use_implicit_null_checksEv()
  br i1 %24, label %27, label %25

25:                                               ; preds = %23
  %26 = load ptr, ptr %2, align 8
  call void (ptr, ptr, ...) @_ZN12outputStream5printEPKcz(ptr noundef nonnull align 8 dereferenceable(56) %26, ptr noundef @.str.15)
  br label %27

27:                                               ; preds = %25, %23
  %28 = load ptr, ptr %2, align 8
  call void @_ZN12outputStream2crEv(ptr noundef nonnull align 8 dereferenceable(56) %28)
  ret void
}