; Function Attrs: mustprogress nounwind uwtable
define hidden void @_ZN14CompressedOops10print_modeEP12outputStream(ptr noundef nonnull %0) local_unnamed_addr #0 align 2 {
  %2 = load ptr, ptr @_ZN14CompressedOops19_heap_address_rangeE, align 8
  %3 = ptrtoint ptr %2 to i64
  %4 = load i64, ptr getelementptr inbounds (i8, ptr @_ZN14CompressedOops19_heap_address_rangeE, i64 8), align 8
  %5 = lshr i64 %4, 17
  %6 = and i64 %5, 17592186044415
  tail call void (ptr, ptr, ...) @_ZN12outputStream5printEPKcz(ptr noundef nonnull align 8 dereferenceable(56) %0, ptr noundef nonnull @.str.11, i64 noundef %3, i64 noundef %6) #9
  %7 = load ptr, ptr @_ZN14CompressedOops11_narrow_oopE, align 8
  %.not.i.i = icmp eq ptr %7, null
  br i1 %.not.i.i, label %_ZN14CompressedOops4modeEv.exit, label %_ZN14CompressedOops13base_disjointEv.exit.i

_ZN14CompressedOops13base_disjointEv.exit.i:      ; preds = %1
  %8 = ptrtoint ptr %7 to i64
  %9 = load i32, ptr @LogMinObjAlignmentInBytes, align 4
  %10 = sub nsw i32 32, %9
  %11 = zext nneg i32 %10 to i64
  %12 = lshr i64 -1, %11
  %13 = and i64 %12, %8
  %14 = icmp eq i64 %13, 0
  %.str.7..str.8 = select i1 %14, ptr @.str.7, ptr @.str.8
  br label %_ZN14CompressedOops14mode_to_stringENS_4ModeE.exit

_ZN14CompressedOops4modeEv.exit:                  ; preds = %1
  %15 = load i32, ptr getelementptr inbounds (i8, ptr @_ZN14CompressedOops11_narrow_oopE, i64 8), align 8
  %.not1.i.not = icmp eq i32 %15, 0
  %spec.select = select i1 %.not1.i.not, ptr @.str.5, ptr @.str.6
  br label %_ZN14CompressedOops14mode_to_stringENS_4ModeE.exit

_ZN14CompressedOops14mode_to_stringENS_4ModeE.exit: ; preds = %_ZN14CompressedOops4modeEv.exit, %_ZN14CompressedOops13base_disjointEv.exit.i
  %.0.i7 = phi ptr [ %.str.7..str.8, %_ZN14CompressedOops13base_disjointEv.exit.i ], [ %spec.select, %_ZN14CompressedOops4modeEv.exit ]
  tail call void (ptr, ptr, ...) @_ZN12outputStream5printEPKcz(ptr noundef nonnull align 8 dereferenceable(56) %0, ptr noundef nonnull @.str.12, ptr noundef nonnull %.0.i7) #9
  %16 = load ptr, ptr @_ZN14CompressedOops11_narrow_oopE, align 8
  %.not = icmp eq ptr %16, null
  br i1 %.not, label %19, label %17

17:                                               ; preds = %_ZN14CompressedOops14mode_to_stringENS_4ModeE.exit
  %18 = ptrtoint ptr %16 to i64
  tail call void (ptr, ptr, ...) @_ZN12outputStream5printEPKcz(ptr noundef nonnull align 8 dereferenceable(56) %0, ptr noundef nonnull @.str.13, i64 noundef %18) #9
  br label %19

19:                                               ; preds = %17, %_ZN14CompressedOops14mode_to_stringENS_4ModeE.exit
  %20 = load i32, ptr getelementptr inbounds (i8, ptr @_ZN14CompressedOops11_narrow_oopE, i64 8), align 8
  %.not6 = icmp eq i32 %20, 0
  br i1 %.not6, label %22, label %21

21:                                               ; preds = %19
  tail call void (ptr, ptr, ...) @_ZN12outputStream5printEPKcz(ptr noundef nonnull align 8 dereferenceable(56) %0, ptr noundef nonnull @.str.14, i32 noundef %20) #9
  br label %22

22:                                               ; preds = %21, %19
  %23 = load i8, ptr getelementptr inbounds (i8, ptr @_ZN14CompressedOops11_narrow_oopE, i64 12), align 4
  %24 = trunc i8 %23 to i1
  br i1 %24, label %26, label %25

25:                                               ; preds = %22
  tail call void (ptr, ptr, ...) @_ZN12outputStream5printEPKcz(ptr noundef nonnull align 8 dereferenceable(56) %0, ptr noundef nonnull @.str.15) #9
  br label %26

26:                                               ; preds = %25, %22
  tail call void @_ZN12outputStream2crEv(ptr noundef nonnull align 8 dereferenceable(56) %0) #9
  ret void
}